target datalayout = "e-m:e-p270:32:32-p271:32:32-p272:64:64-i64:64-i128:128-f80:128-n8:16:32:64-S128"
target triple = "x86_64-pc-linux-gnu"

%struct.H5O_layout_t = type { i32, i32, ptr, %union.anon.0, %struct.H5O_storage_t }
%union.anon.0 = type { %struct.H5O_layout_chunk_t }
%struct.H5O_layout_chunk_t = type { i32, i8, i32, [33 x i32], i32, i32, i64, i64, [33 x i64], [33 x i64], [33 x i64], [33 x i64], %union.anon.1 }
%union.anon.1 = type { %struct.H5O_layout_chunk_earray_t }
%struct.H5O_layout_chunk_earray_t = type { %struct.anon.2, i32, [33 x i32], [33 x i64], [33 x i64] }
%struct.anon.2 = type { i8, i8, i8, i8, i8 }
%struct.H5O_storage_t = type { i32, %union.anon.4 }
%union.anon.4 = type { %struct.H5O_storage_virtual_t }
%struct.H5O_storage_virtual_t = type { %struct.H5HG_t, i64, ptr, i64, [32 x i64], i32, i64, i64, i64, i8 }
%struct.H5HG_t = type { i64, i64 }

@H5O_layout_ver_bounds = constant [7 x i32] [i32 1, i32 3, i32 4, i32 4, i32 4, i32 4, i32 4], align 16
@H5D_init_g = external global i8, align 1
@H5_libterm_g = external global i8, align 1
@.str = private unnamed_addr constant [103 x i8] c"generated/home/dtcxzyw/WorkSpace/Projects/compilers/llvm-opt-benchmark/bench/hdf5/hdf5/src/H5Dlayout.c\00", align 1
@H5E_DATASET_g = external global i64, align 8
@__func__.H5D__layout_set_version = private unnamed_addr constant [24 x i8] c"H5D__layout_set_version\00", align 1
@H5E_BADRANGE_g = external global i64, align 8
@.str.6 = private unnamed_addr constant [29 x i8] c"layout version out of bounds\00", align 1

; Function Attrs: nounwind uwtable
define i32 @H5D__layout_set_version(ptr noundef %0, ptr noundef %1) #0 {
  %3 = alloca ptr, align 8
  %4 = alloca ptr, align 8
  %5 = alloca i32, align 4
  %6 = alloca i32, align 4
  %7 = alloca i8, align 1
  store ptr %0, ptr %3, align 8, !tbaa !52
  store ptr %1, ptr %4, align 8, !tbaa !53
  call void @llvm.lifetime.start.p0(i64 4, ptr %5) #5
  call void @llvm.lifetime.start.p0(i64 4, ptr %6) #5
  store i32 0, ptr %6, align 4, !tbaa !8
  call void @llvm.lifetime.start.p0(i64 1, ptr %7) #5
  store i8 0, ptr %7, align 1, !tbaa !10
  %8 = load i8, ptr @H5D_init_g, align 1, !tbaa !10, !range !12, !noundef !13
  %9 = trunc i8 %8 to i1
  br i1 %9, label %14, label %10

10:                                               ; preds = %2
  %11 = load i8, ptr @H5_libterm_g, align 1, !tbaa !10, !range !12, !noundef !13
  %12 = trunc i8 %11 to i1
  %13 = xor i1 %12, true
  br label %14

14:                                               ; preds = %10, %2
  %15 = phi i1 [ true, %2 ], [ %13, %10 ]
  %16 = xor i1 %15, true
  %17 = xor i1 %16, true
  %18 = zext i1 %17 to i32
  %19 = sext i32 %18 to i64
  %20 = call i64 @llvm.expect.i64(i64 %19, i64 1)
  %21 = icmp ne i64 %20, 0
  br i1 %21, label %22, label %75

22:                                               ; preds = %14
  %23 = load ptr, ptr %4, align 8, !tbaa !53
  %24 = getelementptr inbounds nuw %struct.H5O_layout_t, ptr %23, i32 0, i32 1
  %25 = load i32, ptr %24, align 4, !tbaa !56
  %26 = load ptr, ptr %3, align 8, !tbaa !52
  %27 = call i32 @H5F_get_low_bound(ptr noundef %26)
  %28 = sext i32 %27 to i64
  %29 = getelementptr inbounds [7 x i32], ptr @H5O_layout_ver_bounds, i64 0, i64 %28
  %30 = load i32, ptr %29, align 4, !tbaa !8
  %31 = icmp ugt i32 %25, %30
  br i1 %31, label %32, label %36

32:                                               ; preds = %22
  %33 = load ptr, ptr %4, align 8, !tbaa !53
  %34 = getelementptr inbounds nuw %struct.H5O_layout_t, ptr %33, i32 0, i32 1
  %35 = load i32, ptr %34, align 4, !tbaa !56
  br label %42

36:                                               ; preds = %22
  %37 = load ptr, ptr %3, align 8, !tbaa !52
  %38 = call i32 @H5F_get_low_bound(ptr noundef %37)
  %39 = sext i32 %38 to i64
  %40 = getelementptr inbounds [7 x i32], ptr @H5O_layout_ver_bounds, i64 0, i64 %39
  %41 = load i32, ptr %40, align 4, !tbaa !8
  br label %42

42:                                               ; preds = %36, %32
  %43 = phi i32 [ %35, %32 ], [ %41, %36 ]
  store i32 %43, ptr %5, align 4, !tbaa !8
  %44 = load i32, ptr %5, align 4, !tbaa !8
  %45 = load ptr, ptr %3, align 8, !tbaa !52
  %46 = call i32 @H5F_get_high_bound(ptr noundef %45)
  %47 = sext i32 %46 to i64
  %48 = getelementptr inbounds [7 x i32], ptr @H5O_layout_ver_bounds, i64 0, i64 %47
  %49 = load i32, ptr %48, align 4, !tbaa !8
  %50 = icmp ugt i32 %44, %49
  br i1 %50, label %51, label %70

51:                                               ; preds = %42
  br label %52

52:                                               ; preds = %51
  br label %53

53:                                               ; preds = %52
  br label %54

54:                                               ; preds = %53
  %55 = load i64, ptr @H5E_DATASET_g, align 8, !tbaa !51
  %56 = load i64, ptr @H5E_BADRANGE_g, align 8, !tbaa !51
  %57 = call i32 (ptr, ptr, i32, i64, i64, ptr, ...) @H5E_printf_stack(ptr noundef @.str, ptr noundef @__func__.H5D__layout_set_version, i32 noundef 299, i64 noundef %55, i64 noundef %56, ptr noundef @.str.6)
  br label %58

58:                                               ; preds = %54
  br label %59

59:                                               ; preds = %58
  store i8 1, ptr %7, align 1, !tbaa !10
  %60 = load i8, ptr %7, align 1, !tbaa !10, !range !12, !noundef !13
  %61 = trunc i8 %60 to i1
  %62 = zext i1 %61 to i8
  store i8 %62, ptr %7, align 1, !tbaa !10
  br label %63

63:                                               ; preds = %59
  br label %64

64:                                               ; preds = %63
  br label %65

65:                                               ; preds = %64
  store i32 -1, ptr %6, align 4, !tbaa !8
  br label %74

66:                                               ; No predecessors!
  br label %67

67:                                               ; preds = %66
  br label %68

68:                                               ; preds = %67
  br label %69

69:                                               ; preds = %68
  br label %70

70:                                               ; preds = %69, %42
  %71 = load i32, ptr %5, align 4, !tbaa !8
  %72 = load ptr, ptr %4, align 8, !tbaa !53
  %73 = getelementptr inbounds nuw %struct.H5O_layout_t, ptr %72, i32 0, i32 1
  store i32 %71, ptr %73, align 4, !tbaa !56
  br label %74

74:                                               ; preds = %70, %65
  br label %75

75:                                               ; preds = %74, %14
  %76 = load i32, ptr %6, align 4, !tbaa !8
  call void @llvm.lifetime.end.p0(i64 1, ptr %7) #5
  call void @llvm.lifetime.end.p0(i64 4, ptr %6) #5
  call void @llvm.lifetime.end.p0(i64 4, ptr %5) #5
  ret i32 %76
}