; Function Attrs: nounwind uwtable
define range(i32 -1, 1) i32 @H5D__layout_set_version(ptr noundef %0, ptr noundef captures(none) %1) local_unnamed_addr #0 {
  %3 = load i8, ptr @H5D_init_g, align 1, !tbaa !3, !range !7, !noundef !8
  %4 = trunc nuw i8 %3 to i1
  %5 = load i8, ptr @H5_libterm_g, align 1, !range !7
  %6 = trunc nuw i8 %5 to i1
  %7 = xor i1 %6, true
  %8 = select i1 %4, i1 true, i1 %7
  br i1 %8, label %9, label %33, !prof !9

9:                                                ; preds = %2
  %10 = getelementptr inbounds nuw i8, ptr %1, i64 4
  %11 = load i32, ptr %10, align 4, !tbaa !51
  %12 = tail call i32 @H5F_get_low_bound(ptr noundef %0) #4
  %13 = sext i32 %12 to i64
  %14 = getelementptr inbounds [7 x i32], ptr @H5O_layout_ver_bounds, i64 0, i64 %13
  %15 = load i32, ptr %14, align 4, !tbaa !52
  %16 = icmp ugt i32 %11, %15
  br i1 %16, label %21, label %17

17:                                               ; preds = %9
  %18 = tail call i32 @H5F_get_low_bound(ptr noundef %0) #4
  %19 = sext i32 %18 to i64
  %20 = getelementptr inbounds [7 x i32], ptr @H5O_layout_ver_bounds, i64 0, i64 %19
  br label %21

21:                                               ; preds = %9, %17
  %.in = phi ptr [ %20, %17 ], [ %10, %9 ]
  %22 = load i32, ptr %.in, align 4, !tbaa !52
  %23 = tail call i32 @H5F_get_high_bound(ptr noundef %0) #4
  %24 = sext i32 %23 to i64
  %25 = getelementptr inbounds [7 x i32], ptr @H5O_layout_ver_bounds, i64 0, i64 %24
  %26 = load i32, ptr %25, align 4, !tbaa !52
  %27 = icmp ugt i32 %22, %26
  br i1 %27, label %28, label %32

28:                                               ; preds = %21
  %29 = load i64, ptr @H5E_DATASET_g, align 8, !tbaa !49
  %30 = load i64, ptr @H5E_BADRANGE_g, align 8, !tbaa !49
  %31 = tail call i32 (ptr, ptr, i32, i64, i64, ptr, ...) @H5E_printf_stack(ptr noundef nonnull @.str, ptr noundef nonnull @__func__.H5D__layout_set_version, i32 noundef 299, i64 noundef %29, i64 noundef %30, ptr noundef nonnull @.str.6) #4
  br label %33

32:                                               ; preds = %21
  store i32 %22, ptr %10, align 4, !tbaa !51
  br label %33

33:                                               ; preds = %28, %32, %2
  %.0 = phi i32 [ -1, %28 ], [ 0, %32 ], [ 0, %2 ]
  ret i32 %.0
}